target datalayout = "e-m:e-p270:32:32-p271:32:32-p272:64:64-i64:64-i128:128-f80:128-n8:16:32:64-S128"
target triple = "x86_64-pc-linux-gnu"

%struct.AVFilterContext = type { ptr, ptr, ptr, ptr, ptr, i32, ptr, ptr, i32, ptr, ptr, i32, i32, ptr, ptr, ptr, ptr, i32, ptr, i32, i32 }
%struct.BM3DContext = type { ptr, float, i32, i32, i32, i32, i32, float, float, i32, i32, i32, i32, i32, i32, [4 x i32], [4 x i32], i32, i32, [32 x %struct.SliceContext], %struct.FFFrameSync, i32, ptr, ptr, ptr, ptr }
%struct.SliceContext = type { ptr, ptr, ptr, ptr, ptr, ptr, ptr, ptr, ptr, ptr, ptr, ptr, ptr, ptr, ptr, ptr, ptr, ptr, ptr, [256 x %struct.PosPairCode], i32, ptr }
%struct.PosPairCode = type { double, i32, i32 }
%struct.FFFrameSync = type { ptr, ptr, i32, %struct.AVRational, i64, ptr, ptr, i32, i32, i8, i8, ptr, i32, i32, i32, i32 }
%struct.AVRational = type { i32, i32 }

; Function Attrs: inlinehint nounwind uwtable
define internal void @ff_outlink_set_status(ptr noundef %0, i32 noundef %1, i64 noundef %2) #3 {
  %4 = alloca ptr, align 8
  %5 = alloca i32, align 4
  %6 = alloca i64, align 8
  store ptr %0, ptr %4, align 8, !tbaa !52
  store i32 %1, ptr %5, align 4, !tbaa !43
  store i64 %2, ptr %6, align 8, !tbaa !55
  %7 = load ptr, ptr %4, align 8, !tbaa !52
  %8 = load i32, ptr %5, align 4, !tbaa !43
  %9 = load i64, ptr %6, align 8, !tbaa !55
  call void @ff_avfilter_link_set_in_status(ptr noundef %7, i32 noundef %8, i64 noundef %9)
  ret void
}

; Function Attrs: nounwind uwtable
define internal i32 @activate(ptr noundef %0) #1 {
  %2 = alloca i32, align 4
  %3 = alloca ptr, align 8
  %4 = alloca ptr, align 8
  %5 = alloca ptr, align 8
  %6 = alloca ptr, align 8
  %7 = alloca i32, align 4
  %8 = alloca i32, align 4
  %9 = alloca i64, align 8
  %10 = alloca i32, align 4
  %11 = alloca i32, align 4
  store ptr %0, ptr %3, align 8, !tbaa !4
  call void @llvm.lifetime.start.p0(i64 8, ptr %4) #12
  %12 = load ptr, ptr %3, align 8, !tbaa !4
  %13 = getelementptr inbounds nuw %struct.AVFilterContext, ptr %12, i32 0, i32 9
  %14 = load ptr, ptr %13, align 8, !tbaa !9
  store ptr %14, ptr %4, align 8, !tbaa !22
  %15 = load ptr, ptr %4, align 8, !tbaa !22
  %16 = getelementptr inbounds nuw %struct.BM3DContext, ptr %15, i32 0, i32 10
  %17 = load i32, ptr %16, align 4, !tbaa !34
  %18 = icmp ne i32 %17, 0
  br i1 %18, label %103, label %19

19:                                               ; preds = %1
  call void @llvm.lifetime.start.p0(i64 8, ptr %5) #12
  store ptr null, ptr %5, align 8, !tbaa !49
  call void @llvm.lifetime.start.p0(i64 8, ptr %6) #12
  store ptr null, ptr %6, align 8, !tbaa !49
  call void @llvm.lifetime.start.p0(i64 4, ptr %7) #12
  call void @llvm.lifetime.start.p0(i64 4, ptr %8) #12
  call void @llvm.lifetime.start.p0(i64 8, ptr %9) #12
  br label %20

20:                                               ; preds = %19
  call void @llvm.lifetime.start.p0(i64 4, ptr %10) #12
  %21 = load ptr, ptr %3, align 8, !tbaa !4
  %22 = getelementptr inbounds nuw %struct.AVFilterContext, ptr %21, i32 0, i32 7
  %23 = load ptr, ptr %22, align 8, !tbaa !51
  %24 = getelementptr inbounds ptr, ptr %23, i64 0
  %25 = load ptr, ptr %24, align 8, !tbaa !52
  %26 = call i32 @ff_outlink_get_status(ptr noundef %25)
  store i32 %26, ptr %10, align 4, !tbaa !43
  %27 = load i32, ptr %10, align 4, !tbaa !43
  %28 = icmp ne i32 %27, 0
  br i1 %28, label %29, label %36

29:                                               ; preds = %20
  %30 = load ptr, ptr %3, align 8, !tbaa !4
  %31 = getelementptr inbounds nuw %struct.AVFilterContext, ptr %30, i32 0, i32 4
  %32 = load ptr, ptr %31, align 8, !tbaa !54
  %33 = getelementptr inbounds ptr, ptr %32, i64 0
  %34 = load ptr, ptr %33, align 8, !tbaa !52
  %35 = load i32, ptr %10, align 4, !tbaa !43
  call void @ff_inlink_set_status(ptr noundef %34, i32 noundef %35)
  store i32 0, ptr %2, align 4
  store i32 1, ptr %11, align 4
  br label %37

36:                                               ; preds = %20
  store i32 0, ptr %11, align 4
  br label %37

37:                                               ; preds = %36, %29
  call void @llvm.lifetime.end.p0(i64 4, ptr %10) #12
  %38 = load i32, ptr %11, align 4
  switch i32 %38, label %102 [
    i32 0, label %39
  ]

39:                                               ; preds = %37
  br label %40

40:                                               ; preds = %39
  br label %41

41:                                               ; preds = %40
  %42 = load ptr, ptr %3, align 8, !tbaa !4
  %43 = getelementptr inbounds nuw %struct.AVFilterContext, ptr %42, i32 0, i32 4
  %44 = load ptr, ptr %43, align 8, !tbaa !54
  %45 = getelementptr inbounds ptr, ptr %44, i64 0
  %46 = load ptr, ptr %45, align 8, !tbaa !52
  %47 = call i32 @ff_inlink_consume_frame(ptr noundef %46, ptr noundef %5)
  store i32 %47, ptr %7, align 4, !tbaa !43
  %48 = icmp sgt i32 %47, 0
  br i1 %48, label %49, label %66

49:                                               ; preds = %41
  %50 = load ptr, ptr %3, align 8, !tbaa !4
  %51 = load ptr, ptr %5, align 8, !tbaa !49
  %52 = load ptr, ptr %5, align 8, !tbaa !49
  %53 = call i32 @filter_frame(ptr noundef %50, ptr noundef %6, ptr noundef %51, ptr noundef %52)
  store i32 %53, ptr %7, align 4, !tbaa !43
  call void @av_frame_free(ptr noundef %5)
  %54 = load i32, ptr %7, align 4, !tbaa !43
  %55 = icmp slt i32 %54, 0
  br i1 %55, label %56, label %58

56:                                               ; preds = %49
  %57 = load i32, ptr %7, align 4, !tbaa !43
  store i32 %57, ptr %2, align 4
  store i32 1, ptr %11, align 4
  br label %102

58:                                               ; preds = %49
  %59 = load ptr, ptr %3, align 8, !tbaa !4
  %60 = getelementptr inbounds nuw %struct.AVFilterContext, ptr %59, i32 0, i32 7
  %61 = load ptr, ptr %60, align 8, !tbaa !51
  %62 = getelementptr inbounds ptr, ptr %61, i64 0
  %63 = load ptr, ptr %62, align 8, !tbaa !52
  %64 = load ptr, ptr %6, align 8, !tbaa !49
  %65 = call i32 @ff_filter_frame(ptr noundef %63, ptr noundef %64)
  store i32 %65, ptr %7, align 4, !tbaa !43
  br label %66

66:                                               ; preds = %58, %41
  %67 = load i32, ptr %7, align 4, !tbaa !43
  %68 = icmp slt i32 %67, 0
  br i1 %68, label %69, label %71

69:                                               ; preds = %66
  %70 = load i32, ptr %7, align 4, !tbaa !43
  store i32 %70, ptr %2, align 4
  store i32 1, ptr %11, align 4
  br label %102

71:                                               ; preds = %66
  %72 = load ptr, ptr %3, align 8, !tbaa !4
  %73 = getelementptr inbounds nuw %struct.AVFilterContext, ptr %72, i32 0, i32 4
  %74 = load ptr, ptr %73, align 8, !tbaa !54
  %75 = getelementptr inbounds ptr, ptr %74, i64 0
  %76 = load ptr, ptr %75, align 8, !tbaa !52
  %77 = call i32 @ff_inlink_acknowledge_status(ptr noundef %76, ptr noundef %8, ptr noundef %9)
  %78 = icmp ne i32 %77, 0
  br i1 %78, label %79, label %87

79:                                               ; preds = %71
  %80 = load ptr, ptr %3, align 8, !tbaa !4
  %81 = getelementptr inbounds nuw %struct.AVFilterContext, ptr %80, i32 0, i32 7
  %82 = load ptr, ptr %81, align 8, !tbaa !51
  %83 = getelementptr inbounds ptr, ptr %82, i64 0
  %84 = load ptr, ptr %83, align 8, !tbaa !52
  %85 = load i32, ptr %8, align 4, !tbaa !43
  %86 = load i64, ptr %9, align 8, !tbaa !55
  call void @ff_outlink_set_status(ptr noundef %84, i32 noundef %85, i64 noundef %86)
  store i32 0, ptr %2, align 4
  store i32 1, ptr %11, align 4
  br label %102

87:                                               ; preds = %71
  %88 = load ptr, ptr %3, align 8, !tbaa !4
  %89 = getelementptr inbounds nuw %struct.AVFilterContext, ptr %88, i32 0, i32 7
  %90 = load ptr, ptr %89, align 8, !tbaa !51
  %91 = getelementptr inbounds ptr, ptr %90, i64 0
  %92 = load ptr, ptr %91, align 8, !tbaa !52
  %93 = call i32 @ff_outlink_frame_wanted(ptr noundef %92)
  %94 = icmp ne i32 %93, 0
  br i1 %94, label %95, label %101

95:                                               ; preds = %87
  %96 = load ptr, ptr %3, align 8, !tbaa !4
  %97 = getelementptr inbounds nuw %struct.AVFilterContext, ptr %96, i32 0, i32 4
  %98 = load ptr, ptr %97, align 8, !tbaa !54
  %99 = getelementptr inbounds ptr, ptr %98, i64 0
  %100 = load ptr, ptr %99, align 8, !tbaa !52
  call void @ff_inlink_request_frame(ptr noundef %100)
  br label %101

101:                                              ; preds = %95, %87
  store i32 0, ptr %2, align 4
  store i32 1, ptr %11, align 4
  br label %102

102:                                              ; preds = %101, %79, %69, %56, %37
  call void @llvm.lifetime.end.p0(i64 8, ptr %9) #12
  call void @llvm.lifetime.end.p0(i64 4, ptr %8) #12
  call void @llvm.lifetime.end.p0(i64 4, ptr %7) #12
  call void @llvm.lifetime.end.p0(i64 8, ptr %6) #12
  call void @llvm.lifetime.end.p0(i64 8, ptr %5) #12
  br label %107

103:                                              ; preds = %1
  %104 = load ptr, ptr %4, align 8, !tbaa !22
  %105 = getelementptr inbounds nuw %struct.BM3DContext, ptr %104, i32 0, i32 20
  %106 = call i32 @ff_framesync_activate(ptr noundef %105)
  store i32 %106, ptr %2, align 4
  store i32 1, ptr %11, align 4
  br label %107

107:                                              ; preds = %103, %102
  call void @llvm.lifetime.end.p0(i64 8, ptr %4) #12
  %108 = load i32, ptr %2, align 4
  ret i32 %108
}