; Function Attrs: nounwind uwtable
define internal i32 @activate(ptr noundef %0) #1 {
  %2 = alloca ptr, align 8
  %3 = alloca ptr, align 8
  %4 = alloca i32, align 4
  %5 = alloca i64, align 8
  %6 = getelementptr inbounds nuw i8, ptr %0, i64 72
  %7 = load ptr, ptr %6, align 8, !tbaa !4
  %8 = getelementptr inbounds nuw i8, ptr %7, i64 44
  %9 = load i32, ptr %8, align 4, !tbaa !30
  %.not = icmp eq i32 %9, 0
  br i1 %.not, label %10, label %47

10:                                               ; preds = %1
  call void @llvm.lifetime.start.p0(i64 8, ptr nonnull %2) #15
  store ptr null, ptr %2, align 8, !tbaa !43
  call void @llvm.lifetime.start.p0(i64 8, ptr nonnull %3) #15
  call void @llvm.lifetime.start.p0(i64 4, ptr nonnull %4) #15
  call void @llvm.lifetime.start.p0(i64 8, ptr nonnull %5) #15
  %11 = getelementptr inbounds nuw i8, ptr %0, i64 56
  %12 = load ptr, ptr %11, align 8, !tbaa !45
  %13 = load ptr, ptr %12, align 8, !tbaa !46
  %14 = tail call i32 @ff_outlink_get_status(ptr noundef %13) #15
  %.not24 = icmp eq i32 %14, 0
  %15 = getelementptr inbounds nuw i8, ptr %0, i64 32
  %16 = load ptr, ptr %15, align 8, !tbaa !48
  %17 = load ptr, ptr %16, align 8, !tbaa !46
  br i1 %.not24, label %.critedge, label %18

18:                                               ; preds = %10
  tail call void @ff_inlink_set_status(ptr noundef %17, i32 noundef %14) #15
  br label %46

.critedge:                                        ; preds = %10
  %19 = call i32 @ff_inlink_consume_frame(ptr noundef %17, ptr noundef nonnull %2) #15
  %20 = icmp sgt i32 %19, 0
  br i1 %20, label %21, label %30

21:                                               ; preds = %.critedge
  %22 = load ptr, ptr %2, align 8, !tbaa !43
  %23 = call fastcc i32 @filter_frame(ptr noundef nonnull %0, ptr noundef %3, ptr noundef %22, ptr noundef %22)
  call void @av_frame_free(ptr noundef nonnull %2) #15
  %24 = icmp slt i32 %23, 0
  br i1 %24, label %46, label %25

25:                                               ; preds = %21
  %26 = load ptr, ptr %11, align 8, !tbaa !45
  %27 = load ptr, ptr %26, align 8, !tbaa !46
  %28 = load ptr, ptr %3, align 8, !tbaa !43
  %29 = call i32 @ff_filter_frame(ptr noundef %27, ptr noundef %28) #15
  br label %30

30:                                               ; preds = %25, %.critedge
  %.020 = phi i32 [ %29, %25 ], [ %19, %.critedge ]
  %31 = icmp slt i32 %.020, 0
  br i1 %31, label %46, label %32

32:                                               ; preds = %30
  %33 = load ptr, ptr %15, align 8, !tbaa !48
  %34 = load ptr, ptr %33, align 8, !tbaa !46
  %35 = call i32 @ff_inlink_acknowledge_status(ptr noundef %34, ptr noundef nonnull %4, ptr noundef nonnull %5) #15
  %.not25 = icmp eq i32 %35, 0
  %36 = load ptr, ptr %11, align 8, !tbaa !45
  %37 = load ptr, ptr %36, align 8, !tbaa !46
  br i1 %.not25, label %41, label %38

38:                                               ; preds = %32
  %39 = load i32, ptr %4, align 4, !tbaa !49
  %40 = load i64, ptr %5, align 8, !tbaa !50
  call void @ff_avfilter_link_set_in_status(ptr noundef %37, i32 noundef %39, i64 noundef %40) #15
  br label %46

41:                                               ; preds = %32
  %42 = call i32 @ff_outlink_frame_wanted(ptr noundef %37) #15
  %.not26 = icmp eq i32 %42, 0
  br i1 %.not26, label %46, label %43

43:                                               ; preds = %41
  %44 = load ptr, ptr %15, align 8, !tbaa !48
  %45 = load ptr, ptr %44, align 8, !tbaa !46
  call void @ff_inlink_request_frame(ptr noundef %45) #15
  br label %46

46:                                               ; preds = %18, %41, %43, %30, %21, %38
  %.1 = phi i32 [ 0, %38 ], [ 0, %18 ], [ %23, %21 ], [ %.020, %30 ], [ 0, %43 ], [ 0, %41 ]
  call void @llvm.lifetime.end.p0(i64 8, ptr nonnull %5) #15
  call void @llvm.lifetime.end.p0(i64 4, ptr nonnull %4) #15
  call void @llvm.lifetime.end.p0(i64 8, ptr nonnull %3) #15
  call void @llvm.lifetime.end.p0(i64 8, ptr nonnull %2) #15
  br label %50

47:                                               ; preds = %1
  %48 = getelementptr inbounds nuw i8, ptr %7, i64 136552
  %49 = tail call i32 @ff_framesync_activate(ptr noundef nonnull %48) #15
  br label %50

50:                                               ; preds = %47, %46
  %.2 = phi i32 [ %49, %47 ], [ %.1, %46 ]
  ret i32 %.2
}